; Function Attrs: mustprogress nofree norecurse nosync nounwind willreturn memory(argmem: readwrite) uwtable
define void @_ZN2cv4gapi8GBackendC2EOSt10shared_ptrINS1_4PrivEE(ptr noundef nonnull writeonly align 8 captures(none) dereferenceable(16) initializes((0, 16)) %0, ptr noundef nonnull align 8 captures(none) dereferenceable(16) %1) unnamed_addr #10 align 2 {
  %3 = load ptr, ptr %1, align 8, !tbaa !26
  store ptr %3, ptr %0, align 8, !tbaa !26
  %4 = getelementptr inbounds nuw i8, ptr %0, i64 8
  store ptr null, ptr %4, align 8, !tbaa !31
  %5 = getelementptr inbounds nuw i8, ptr %1, i64 8
  %6 = load ptr, ptr %5, align 8, !tbaa !31
  store ptr null, ptr %5, align 8, !tbaa !31
  store ptr %6, ptr %4, align 8, !tbaa !31
  store ptr null, ptr %1, align 8, !tbaa !26
  ret void
}